; Function Attrs: mustprogress uwtable
define void @_ZN3zmq8router_t16xpipe_terminatedEPNS_6pipe_tE(ptr noundef nonnull align 8 dereferenceable(2180) %this, ptr noundef %pipe_) unnamed_addr #0 align 2 {
entry:
  %pipe_.addr = alloca ptr, align 8
  store ptr %pipe_, ptr %pipe_.addr, align 8
  %_anonymous_pipes = getelementptr inbounds i8, ptr %this, i64 2112
  %call.i = call noundef i64 @_ZNSt8_Rb_treeIPN3zmq6pipe_tES2_St9_IdentityIS2_ESt4lessIS2_ESaIS2_EE5eraseERKS2_(ptr noundef nonnull align 8 dereferenceable(48) %_anonymous_pipes, ptr noundef nonnull align 8 dereferenceable(8) %pipe_.addr)
  %cmp = icmp eq i64 %call.i, 0
  br i1 %cmp, label %if.then, label %if.end5

if.then:                                          ; preds = %entry
  %0 = load ptr, ptr %pipe_.addr, align 8
  call void @_ZN3zmq21routing_socket_base_t14erase_out_pipeEPKNS_6pipe_tE(ptr noundef nonnull align 8 dereferenceable(1912) %this, ptr noundef %0)
  %_fq = getelementptr inbounds i8, ptr %this, i64 1912
  %1 = load ptr, ptr %pipe_.addr, align 8
  call void @_ZN3zmq4fq_t15pipe_terminatedEPNS_6pipe_tE(ptr noundef nonnull align 8 dereferenceable(41) %_fq, ptr noundef %1)
  %2 = load ptr, ptr %pipe_.addr, align 8
  call void @_ZNK3zmq6pipe_t8rollbackEv(ptr noundef nonnull align 8 dereferenceable(328) %2)
  %3 = load ptr, ptr %pipe_.addr, align 8
  %_current_out = getelementptr inbounds i8, ptr %this, i64 2160
  %4 = load ptr, ptr %_current_out, align 8
  %cmp2 = icmp eq ptr %3, %4
  br i1 %cmp2, label %if.then3, label %if.end5

if.then3:                                         ; preds = %if.then
  store ptr null, ptr %_current_out, align 8
  br label %if.end5

if.end5:                                          ; preds = %if.then, %if.then3, %entry
  ret void
}